; Function Attrs: mustprogress uwtable
define void @_ZN9grpc_core9XdsClient12ChannelState17StopLrsCallLockedEv(ptr nocapture noundef nonnull align 8 dereferenceable(120) %this) local_unnamed_addr #3 align 2 personality ptr @__gxx_personality_v0 {
entry:
  %ref.tmp = alloca ptr, align 8
  %xds_client_ = getelementptr inbounds i8, ptr %this, i64 16
  %0 = load ptr, ptr %xds_client_, align 8
  %xds_load_report_server_map_ = getelementptr inbounds i8, ptr %0, i64 336
  %server_ = getelementptr inbounds i8, ptr %this, i64 24
  %1 = load ptr, ptr %server_, align 8
  store ptr %1, ptr %ref.tmp, align 8
  %call.i = call noundef i64 @_ZNSt8_Rb_treeIPKN9grpc_core12XdsBootstrap9XdsServerESt4pairIKS4_NS0_9XdsClient16LoadReportServerEESt10_Select1stIS9_ESt4lessIS4_ESaIS9_EE5eraseERS6_(ptr noundef nonnull align 8 dereferenceable(48) %xds_load_report_server_map_, ptr noundef nonnull align 8 dereferenceable(8) %ref.tmp)
  %lrs_calld_ = getelementptr inbounds i8, ptr %this, i64 56
  %2 = load ptr, ptr %lrs_calld_, align 8
  store ptr null, ptr %lrs_calld_, align 8
  %tobool.not.i.i = icmp eq ptr %2, null
  br i1 %tobool.not.i.i, label %_ZNSt10unique_ptrIN9grpc_core9XdsClient12ChannelState13RetryableCallINS2_12LrsCallStateEEENS0_16OrphanableDeleteEE5resetEPS5_.exit, label %if.then.i.i

if.then.i.i:                                      ; preds = %entry
  %vtable.i.i.i = load ptr, ptr %2, align 8
  %3 = load ptr, ptr %vtable.i.i.i, align 8
  invoke void %3(ptr noundef nonnull align 8 dereferenceable(393) %2)
          to label %_ZNSt10unique_ptrIN9grpc_core9XdsClient12ChannelState13RetryableCallINS2_12LrsCallStateEEENS0_16OrphanableDeleteEE5resetEPS5_.exit unwind label %terminate.lpad.i.i

terminate.lpad.i.i:                               ; preds = %if.then.i.i
  %4 = landingpad { ptr, i32 }
          catch ptr null
  %5 = extractvalue { ptr, i32 } %4, 0
  call void @__clang_call_terminate(ptr %5) #27
  unreachable

_ZNSt10unique_ptrIN9grpc_core9XdsClient12ChannelState13RetryableCallINS2_12LrsCallStateEEENS0_16OrphanableDeleteEE5resetEPS5_.exit: ; preds = %entry, %if.then.i.i
  ret void
}